target datalayout = "e-m:e-p270:32:32-p271:32:32-p272:64:64-i64:64-i128:128-f80:128-n8:16:32:64-S128"
target triple = "x86_64-pc-linux-gnu"

%"class.open3d::utility::ProgressBar" = type <{ ptr, i64, i64, i64, %"class.std::__cxx11::basic_string", i64, i8, [7 x i8] }>
%"class.std::__cxx11::basic_string" = type { %"struct.std::__cxx11::basic_string<char>::_Alloc_hider", i64, %union.anon }
%"struct.std::__cxx11::basic_string<char>::_Alloc_hider" = type { ptr }
%union.anon = type { i64, [8 x i8] }

; Function Attrs: mustprogress ssp uwtable
define noundef nonnull align 8 dereferenceable(73) ptr @_ZN6open3d7utility14OMPProgressBarppEv(ptr noundef nonnull align 8 dereferenceable(73) %0) unnamed_addr #0 align 2 {
  %2 = alloca ptr, align 8
  %3 = alloca i32, align 4
  %4 = alloca i32, align 4
  store ptr %0, ptr %2, align 8, !tbaa !16
  %5 = load ptr, ptr %2, align 8
  call void @llvm.lifetime.start.p0(i64 4, ptr %3) #26
  %6 = call i32 @omp_get_num_threads()
  store i32 %6, ptr %3, align 4, !tbaa !18
  call void @llvm.lifetime.start.p0(i64 4, ptr %4) #26
  %7 = call i32 @omp_get_thread_num()
  store i32 %7, ptr %4, align 4, !tbaa !18
  %8 = load i32, ptr %3, align 4, !tbaa !18
  %9 = icmp sgt i32 %8, 1
  br i1 %9, label %10, label %20

10:                                               ; preds = %1
  %11 = load i32, ptr %4, align 4, !tbaa !18
  %12 = icmp eq i32 %11, 0
  br i1 %12, label %13, label %19

13:                                               ; preds = %10
  %14 = getelementptr inbounds nuw %"class.open3d::utility::ProgressBar", ptr %5, i32 0, i32 3
  %15 = load i64, ptr %14, align 8, !tbaa !9
  %16 = load i32, ptr %3, align 4, !tbaa !18
  %17 = sext i32 %16 to i64
  %18 = add i64 %15, %17
  call void @_ZN6open3d7utility11ProgressBar15SetCurrentCountEm(ptr noundef nonnull align 8 dereferenceable(73) %5, i64 noundef %18)
  br label %19

19:                                               ; preds = %13, %10
  br label %24

20:                                               ; preds = %1
  %21 = getelementptr inbounds nuw %"class.open3d::utility::ProgressBar", ptr %5, i32 0, i32 3
  %22 = load i64, ptr %21, align 8, !tbaa !9
  %23 = add i64 %22, 1
  call void @_ZN6open3d7utility11ProgressBar15SetCurrentCountEm(ptr noundef nonnull align 8 dereferenceable(73) %5, i64 noundef %23)
  br label %24

24:                                               ; preds = %20, %19
  call void @llvm.lifetime.end.p0(i64 4, ptr %4) #26
  call void @llvm.lifetime.end.p0(i64 4, ptr %3) #26
  ret ptr %5
}