; Function Attrs: mustprogress ssp uwtable
define noundef nonnull align 8 dereferenceable(73) ptr @_ZN6open3d7utility14OMPProgressBarppEv(ptr noundef nonnull returned align 8 captures(ret: address, provenance) dereferenceable(73) %0) unnamed_addr #0 align 2 {
  %2 = tail call i32 @omp_get_num_threads()
  %3 = tail call i32 @omp_get_thread_num()
  %4 = icmp sgt i32 %2, 1
  br i1 %4, label %5, label %12

5:                                                ; preds = %1
  %6 = icmp eq i32 %3, 0
  br i1 %6, label %7, label %16

7:                                                ; preds = %5
  %8 = getelementptr inbounds nuw i8, ptr %0, i64 24
  %9 = load i64, ptr %8, align 8, !tbaa !4
  %10 = zext nneg i32 %2 to i64
  %11 = add i64 %9, %10
  br label %.sink.split

12:                                               ; preds = %1
  %13 = getelementptr inbounds nuw i8, ptr %0, i64 24
  %14 = load i64, ptr %13, align 8, !tbaa !4
  %15 = add i64 %14, 1
  br label %.sink.split

.sink.split:                                      ; preds = %12, %7
  %.sink = phi i64 [ %11, %7 ], [ %15, %12 ]
  tail call void @_ZN6open3d7utility11ProgressBar15SetCurrentCountEm(ptr noundef nonnull align 8 dereferenceable(73) %0, i64 noundef %.sink)
  br label %16

16:                                               ; preds = %.sink.split, %5
  ret ptr %0
}